target datalayout = "e-m:e-p270:32:32-p271:32:32-p272:64:64-i64:64-i128:128-f80:128-n8:16:32:64-S128"
target triple = "x86_64-pc-linux-gnu"

%struct.rb_io_encoding = type { ptr, ptr, i32, i64 }
%struct.RBasic = type { i64, i64 }
%struct.RData = type { %struct.RBasic, ptr, ptr, ptr }
%struct.argf = type { i64, i64, i64, i64, i64, i64, %struct.rb_io_encoding, i8, i8, i8 }

@argf = internal global i64 0, align 8

; Function Attrs: nounwind sspstrong uwtable
define hidden void @ruby_set_inplace_mode(ptr noundef %0) #0 {
  %2 = alloca ptr, align 8
  store ptr %0, ptr %2, align 8, !tbaa !30
  %3 = load ptr, ptr %2, align 8, !tbaa !30
  %4 = icmp ne ptr %3, null
  br i1 %4, label %6, label %5

5:                                                ; preds = %1
  br label %25

6:                                                ; preds = %1
  %7 = load ptr, ptr %2, align 8, !tbaa !30
  %8 = load i8, ptr %7, align 1, !tbaa !69
  %9 = icmp ne i8 %8, 0
  br i1 %9, label %11, label %10

10:                                               ; preds = %6
  br label %23

11:                                               ; preds = %6
  br i1 false, label %12, label %16

12:                                               ; preds = %11
  %13 = load ptr, ptr %2, align 8, !tbaa !30
  %14 = call i64 @strlen(ptr noundef %13) #32
  %15 = call i1 @llvm.is.constant.i64(i64 %14)
  br label %16

16:                                               ; preds = %12, %11
  %17 = phi i1 [ false, %11 ], [ %15, %12 ]
  %18 = select i1 %17, ptr @rb_str_new_static, ptr @rb_str_new
  %19 = load ptr, ptr %2, align 8, !tbaa !30
  %20 = load ptr, ptr %2, align 8, !tbaa !30
  %21 = call i64 @strlen(ptr noundef %20) #32
  %22 = call i64 %18(ptr noundef %19, i64 noundef %21)
  br label %23

23:                                               ; preds = %16, %10
  %24 = phi i64 [ 4, %10 ], [ %22, %16 ]
  br label %25

25:                                               ; preds = %23, %5
  %26 = phi i64 [ 0, %5 ], [ %24, %23 ]
  %27 = load i64, ptr @argf, align 8, !tbaa !32
  %28 = inttoptr i64 %27 to ptr
  %29 = getelementptr inbounds nuw %struct.RData, ptr %28, i32 0, i32 3
  %30 = load ptr, ptr %29, align 8, !tbaa !62
  %31 = getelementptr inbounds nuw %struct.argf, ptr %30, i32 0, i32 5
  store i64 %26, ptr %31, align 8, !tbaa !142
  ret void
}