; Function Attrs: nounwind sspstrong uwtable
define hidden void @ruby_set_inplace_mode(ptr noundef %0) local_unnamed_addr #0 {
  %.not = icmp eq ptr %0, null
  br i1 %.not, label %7, label %2

2:                                                ; preds = %1
  %3 = load i8, ptr %0, align 1, !tbaa !76
  %.not4 = icmp eq i8 %3, 0
  br i1 %.not4, label %7, label %4

4:                                                ; preds = %2
  %5 = tail call i64 @strlen(ptr noundef nonnull dereferenceable(1) %0) #33
  %6 = tail call i64 @rb_str_new(ptr noundef nonnull %0, i64 noundef %5) #28
  br label %7

7:                                                ; preds = %4, %2, %1
  %8 = phi i64 [ 0, %1 ], [ %6, %4 ], [ 4, %2 ]
  %9 = load i64, ptr @argf, align 8, !tbaa !23
  %10 = inttoptr i64 %9 to ptr
  %11 = getelementptr inbounds nuw i8, ptr %10, i64 32
  %12 = load ptr, ptr %11, align 8, !tbaa !59
  %13 = getelementptr inbounds nuw i8, ptr %12, i64 40
  store i64 %8, ptr %13, align 8, !tbaa !177
  ret void
}